target datalayout = "e-m:e-p270:32:32-p271:32:32-p272:64:64-i64:64-i128:128-f80:128-n8:16:32:64-S128"
target triple = "x86_64-pc-linux-gnu"

%struct.expert_field = type { i32, i32 }

@ei_nas_5gs_extraneous_data = internal global %struct.expert_field zeroinitializer, align 4
@ei_nas_5gs_missing_mandatory_element = internal global %struct.expert_field zeroinitializer, align 4
@.str.1644 = private unnamed_addr constant [1 x i8] zeroinitializer, align 1
@.str.1663 = private unnamed_addr constant [64 x i8] c"Missing Mandatory elements %s %s, rest of dissection is suspect\00", align 1
@.str.1664 = private unnamed_addr constant [62 x i8] c"Missing Mandatory element %s%s, rest of dissection is suspect\00", align 1

; Function Attrs: null_pointer_is_valid sspstrong uwtable
define internal void @nas_5gs_mm_de_reg_req_ue_orig(ptr noundef %0, ptr noundef %1, ptr noundef %2, i32 noundef %3, i32 noundef %4) #0 {
  %6 = alloca ptr, align 8
  %7 = alloca ptr, align 8
  %8 = alloca ptr, align 8
  %9 = alloca i32, align 4
  %10 = alloca i32, align 4
  %11 = alloca i32, align 4
  %12 = alloca i32, align 4
  %13 = alloca i32, align 4
  %14 = alloca i32, align 4
  store ptr %0, ptr %6, align 8
  store ptr %1, ptr %7, align 8
  store ptr %2, ptr %8, align 8
  store i32 %3, ptr %9, align 4
  store i32 %4, ptr %10, align 4
  call void @llvm.lifetime.start.p0(i64 4, ptr %11) #11
  call void @llvm.lifetime.start.p0(i64 4, ptr %12) #11
  call void @llvm.lifetime.start.p0(i64 4, ptr %13) #11
  %15 = load i32, ptr %9, align 4
  store i32 %15, ptr %11, align 4
  %16 = load i32, ptr %10, align 4
  store i32 %16, ptr %13, align 4
  %17 = load i32, ptr %13, align 4
  %18 = icmp sgt i32 %17, 0
  br i1 %18, label %19, label %34

19:                                               ; preds = %5
  %20 = load ptr, ptr %6, align 8
  %21 = load ptr, ptr %7, align 8
  %22 = load ptr, ptr %8, align 8
  %23 = load i32, ptr %11, align 4
  %24 = call zeroext i16 @elem_v_short(ptr noundef %20, ptr noundef %21, ptr noundef %22, i32 noundef 17, i32 noundef 25, i32 noundef %23, i32 noundef 1)
  %25 = load ptr, ptr %6, align 8
  %26 = load ptr, ptr %7, align 8
  %27 = load ptr, ptr %8, align 8
  %28 = load i32, ptr %11, align 4
  %29 = call zeroext i16 @elem_v_short(ptr noundef %25, ptr noundef %26, ptr noundef %27, i32 noundef 17, i32 noundef 40, i32 noundef %28, i32 noundef 2)
  %30 = load i32, ptr %11, align 4
  %31 = add i32 %30, 1
  store i32 %31, ptr %11, align 4
  %32 = load i32, ptr %13, align 4
  %33 = add i32 %32, -1
  store i32 %33, ptr %13, align 4
  br label %42

34:                                               ; preds = %5
  %35 = load ptr, ptr %7, align 8
  %36 = load ptr, ptr %8, align 8
  %37 = load ptr, ptr %6, align 8
  %38 = load i32, ptr %11, align 4
  %39 = call ptr @get_gsm_a_msg_string(i32 noundef 17, i32 noundef 25)
  %40 = call ptr @get_gsm_a_msg_string(i32 noundef 17, i32 noundef 40)
  %41 = call ptr (ptr, ptr, ptr, ptr, i32, i32, ptr, ...) @proto_tree_add_expert_format(ptr noundef %35, ptr noundef %36, ptr noundef @ei_nas_5gs_missing_mandatory_element, ptr noundef %37, i32 noundef %38, i32 noundef 0, ptr noundef @.str.1663, ptr noundef %39, ptr noundef %40)
  br label %42

42:                                               ; preds = %34, %19
  %43 = load i32, ptr %13, align 4
  %44 = icmp sgt i32 %43, 0
  br i1 %44, label %45, label %61

45:                                               ; preds = %42
  %46 = load ptr, ptr %6, align 8
  %47 = load ptr, ptr %7, align 8
  %48 = load ptr, ptr %8, align 8
  %49 = load i32, ptr %11, align 4
  %50 = load i32, ptr %13, align 4
  %51 = call zeroext i16 @elem_lv_e(ptr noundef %46, ptr noundef %47, ptr noundef %48, i32 noundef 17, i32 noundef 4, i32 noundef %49, i32 noundef %50, ptr noundef null)
  %52 = zext i16 %51 to i32
  store i32 %52, ptr %12, align 4
  %53 = icmp ugt i32 %52, 0
  br i1 %53, label %54, label %61

54:                                               ; preds = %45
  %55 = load i32, ptr %12, align 4
  %56 = load i32, ptr %11, align 4
  %57 = add i32 %56, %55
  store i32 %57, ptr %11, align 4
  %58 = load i32, ptr %12, align 4
  %59 = load i32, ptr %13, align 4
  %60 = sub i32 %59, %58
  store i32 %60, ptr %13, align 4
  br label %68

61:                                               ; preds = %45, %42
  %62 = load ptr, ptr %7, align 8
  %63 = load ptr, ptr %8, align 8
  %64 = load ptr, ptr %6, align 8
  %65 = load i32, ptr %11, align 4
  %66 = call ptr @get_gsm_a_msg_string(i32 noundef 17, i32 noundef 4)
  %67 = call ptr (ptr, ptr, ptr, ptr, i32, i32, ptr, ...) @proto_tree_add_expert_format(ptr noundef %62, ptr noundef %63, ptr noundef @ei_nas_5gs_missing_mandatory_element, ptr noundef %64, i32 noundef %65, i32 noundef 0, ptr noundef @.str.1664, ptr noundef %66, ptr noundef @.str.1644)
  br label %68

68:                                               ; preds = %61, %54
  %69 = load i32, ptr %13, align 4
  %70 = icmp sle i32 %69, 0
  br i1 %70, label %71, label %72

71:                                               ; preds = %68
  store i32 1, ptr %14, align 4
  br label %124

72:                                               ; preds = %68
  %73 = load ptr, ptr %6, align 8
  %74 = load ptr, ptr %7, align 8
  %75 = load ptr, ptr %8, align 8
  %76 = load i32, ptr %11, align 4
  %77 = load i32, ptr %13, align 4
  %78 = call zeroext i16 @elem_tlv(ptr noundef %73, ptr noundef %74, ptr noundef %75, i8 noundef zeroext 60, i32 noundef 10, i32 noundef 77, i32 noundef %76, i32 noundef %77, ptr noundef null)
  %79 = zext i16 %78 to i32
  store i32 %79, ptr %12, align 4
  %80 = icmp ugt i32 %79, 0
  br i1 %80, label %81, label %88

81:                                               ; preds = %72
  %82 = load i32, ptr %12, align 4
  %83 = load i32, ptr %11, align 4
  %84 = add i32 %83, %82
  store i32 %84, ptr %11, align 4
  %85 = load i32, ptr %12, align 4
  %86 = load i32, ptr %13, align 4
  %87 = sub i32 %86, %85
  store i32 %87, ptr %13, align 4
  br label %88

88:                                               ; preds = %81, %72
  %89 = load i32, ptr %13, align 4
  %90 = icmp sle i32 %89, 0
  br i1 %90, label %91, label %92

91:                                               ; preds = %88
  store i32 1, ptr %14, align 4
  br label %124

92:                                               ; preds = %88
  %93 = load ptr, ptr %6, align 8
  %94 = load ptr, ptr %7, align 8
  %95 = load ptr, ptr %8, align 8
  %96 = load i32, ptr %11, align 4
  %97 = load i32, ptr %13, align 4
  %98 = call zeroext i16 @elem_tlv_e(ptr noundef %93, ptr noundef %94, ptr noundef %95, i8 noundef zeroext 113, i32 noundef 17, i32 noundef 41, i32 noundef %96, i32 noundef %97, ptr noundef null)
  %99 = zext i16 %98 to i32
  store i32 %99, ptr %12, align 4
  %100 = icmp ugt i32 %99, 0
  br i1 %100, label %101, label %108

101:                                              ; preds = %92
  %102 = load i32, ptr %12, align 4
  %103 = load i32, ptr %11, align 4
  %104 = add i32 %103, %102
  store i32 %104, ptr %11, align 4
  %105 = load i32, ptr %12, align 4
  %106 = load i32, ptr %13, align 4
  %107 = sub i32 %106, %105
  store i32 %107, ptr %13, align 4
  br label %108

108:                                              ; preds = %101, %92
  %109 = load i32, ptr %13, align 4
  %110 = icmp ugt i32 %109, 0
  br i1 %110, label %111, label %123

111:                                              ; preds = %108
  %112 = load ptr, ptr %7, align 8
  %113 = load ptr, ptr %8, align 8
  %114 = load ptr, ptr %6, align 8
  %115 = load i32, ptr %11, align 4
  %116 = load i32, ptr %13, align 4
  %117 = sub i32 %116, 0
  %118 = call ptr @proto_tree_add_expert(ptr noundef %112, ptr noundef %113, ptr noundef @ei_nas_5gs_extraneous_data, ptr noundef %114, i32 noundef %115, i32 noundef %117)
  %119 = load i32, ptr %13, align 4
  %120 = sub i32 %119, 0
  %121 = load i32, ptr %11, align 4
  %122 = add i32 %121, %120
  store i32 %122, ptr %11, align 4
  br label %123

123:                                              ; preds = %111, %108
  store i32 0, ptr %14, align 4
  br label %124

124:                                              ; preds = %123, %91, %71
  call void @llvm.lifetime.end.p0(i64 4, ptr %13) #11
  call void @llvm.lifetime.end.p0(i64 4, ptr %12) #11
  call void @llvm.lifetime.end.p0(i64 4, ptr %11) #11
  %125 = load i32, ptr %14, align 4
  switch i32 %125, label %127 [
    i32 0, label %126
    i32 1, label %126
  ]

126:                                              ; preds = %124, %124
  ret void

127:                                              ; preds = %124
  unreachable
}