; Function Attrs: null_pointer_is_valid sspstrong uwtable
define internal void @nas_5gs_mm_de_reg_req_ue_orig(ptr noundef %0, ptr noundef %1, ptr noundef %2, i32 noundef %3, i32 noundef %4) #0 {
  %6 = icmp sgt i32 %4, 0
  br i1 %6, label %10, label %.thread

.thread:                                          ; preds = %5
  %7 = tail call ptr @get_gsm_a_msg_string(i32 noundef 17, i32 noundef 25)
  %8 = tail call ptr @get_gsm_a_msg_string(i32 noundef 17, i32 noundef 40)
  %9 = tail call ptr (ptr, ptr, ptr, ptr, i32, i32, ptr, ...) @proto_tree_add_expert_format(ptr noundef %1, ptr noundef %2, ptr noundef nonnull @ei_nas_5gs_missing_mandatory_element, ptr noundef %0, i32 noundef %3, i32 noundef 0, ptr noundef nonnull @.str.1663, ptr noundef %7, ptr noundef %8)
  br label %21

10:                                               ; preds = %5
  %11 = tail call zeroext i16 @elem_v_short(ptr noundef %0, ptr noundef %1, ptr noundef %2, i32 noundef 17, i32 noundef 25, i32 noundef %3, i32 noundef 1)
  %12 = tail call zeroext i16 @elem_v_short(ptr noundef %0, ptr noundef %1, ptr noundef %2, i32 noundef 17, i32 noundef 40, i32 noundef %3, i32 noundef 2)
  %13 = add i32 %3, 1
  %14 = add nsw i32 %4, -1
  %.not74 = icmp eq i32 %14, 0
  br i1 %.not74, label %21, label %15

15:                                               ; preds = %10
  %16 = tail call zeroext i16 @elem_lv_e(ptr noundef %0, ptr noundef %1, ptr noundef %2, i32 noundef 17, i32 noundef 4, i32 noundef %13, i32 noundef %14, ptr noundef null)
  %.not = icmp eq i16 %16, 0
  br i1 %.not, label %21, label %17

17:                                               ; preds = %15
  %18 = zext i16 %16 to i32
  %19 = add i32 %13, %18
  %20 = sub nsw i32 %14, %18
  br label %24

21:                                               ; preds = %.thread, %15, %10
  %.073 = phi i32 [ %4, %.thread ], [ %14, %15 ], [ 0, %10 ]
  %.05872 = phi i32 [ %3, %.thread ], [ %13, %15 ], [ %13, %10 ]
  %22 = tail call ptr @get_gsm_a_msg_string(i32 noundef 17, i32 noundef 4)
  %23 = tail call ptr (ptr, ptr, ptr, ptr, i32, i32, ptr, ...) @proto_tree_add_expert_format(ptr noundef %1, ptr noundef %2, ptr noundef nonnull @ei_nas_5gs_missing_mandatory_element, ptr noundef %0, i32 noundef %.05872, i32 noundef 0, ptr noundef nonnull @.str.1664, ptr noundef %22, ptr noundef nonnull @.str.1644)
  br label %24

24:                                               ; preds = %21, %17
  %.159 = phi i32 [ %19, %17 ], [ %.05872, %21 ]
  %.1 = phi i32 [ %20, %17 ], [ %.073, %21 ]
  %25 = icmp slt i32 %.1, 1
  br i1 %25, label %39, label %26

26:                                               ; preds = %24
  %27 = tail call zeroext i16 @elem_tlv(ptr noundef %0, ptr noundef %1, ptr noundef %2, i8 noundef zeroext 60, i32 noundef 10, i32 noundef 77, i32 noundef %.159, i32 noundef %.1, ptr noundef null)
  %28 = zext i16 %27 to i32
  %29 = sub nsw i32 %.1, %28
  %30 = icmp slt i32 %29, 1
  br i1 %30, label %39, label %31

31:                                               ; preds = %26
  %32 = add i32 %.159, %28
  %33 = tail call zeroext i16 @elem_tlv_e(ptr noundef %0, ptr noundef %1, ptr noundef %2, i8 noundef zeroext 113, i32 noundef 17, i32 noundef 41, i32 noundef %32, i32 noundef %29, ptr noundef null)
  %34 = zext i16 %33 to i32
  %.not69 = icmp eq i32 %29, %34
  br i1 %.not69, label %39, label %35

35:                                               ; preds = %31
  %36 = sub nsw i32 %29, %34
  %37 = add i32 %32, %34
  %38 = tail call ptr @proto_tree_add_expert(ptr noundef %1, ptr noundef %2, ptr noundef nonnull @ei_nas_5gs_extraneous_data, ptr noundef %0, i32 noundef %37, i32 noundef %36)
  br label %39

39:                                               ; preds = %31, %35, %26, %24
  ret void
}